target datalayout = "e-m:e-p270:32:32-p271:32:32-p272:64:64-i64:64-i128:128-f80:128-n8:16:32:64-S128"
target triple = "x86_64-pc-linux-gnu"

%struct.dsa_area = type { ptr, ptr, [1024 x %struct.dsa_segment_map], i64, i64 }
%struct.dsa_segment_map = type { ptr, ptr, ptr, ptr, ptr }

; Function Attrs: nounwind uwtable
define dso_local void @dsa_pin_mapping(ptr noundef %0) #0 {
  %2 = alloca ptr, align 8
  %3 = alloca i32, align 4
  store ptr %0, ptr %2, align 8
  call void @llvm.lifetime.start.p0(i64 4, ptr %3) #8
  %4 = load ptr, ptr %2, align 8
  %5 = getelementptr inbounds nuw %struct.dsa_area, ptr %4, i32 0, i32 1
  %6 = load ptr, ptr %5, align 8
  %7 = icmp ne ptr %6, null
  br i1 %7, label %8, label %40

8:                                                ; preds = %1
  %9 = load ptr, ptr %2, align 8
  %10 = getelementptr inbounds nuw %struct.dsa_area, ptr %9, i32 0, i32 1
  store ptr null, ptr %10, align 8
  store i32 0, ptr %3, align 4
  br label %11

11:                                               ; preds = %36, %8
  %12 = load i32, ptr %3, align 4
  %13 = sext i32 %12 to i64
  %14 = load ptr, ptr %2, align 8
  %15 = getelementptr inbounds nuw %struct.dsa_area, ptr %14, i32 0, i32 3
  %16 = load i64, ptr %15, align 8
  %17 = icmp ule i64 %13, %16
  br i1 %17, label %18, label %39

18:                                               ; preds = %11
  %19 = load ptr, ptr %2, align 8
  %20 = getelementptr inbounds nuw %struct.dsa_area, ptr %19, i32 0, i32 2
  %21 = load i32, ptr %3, align 4
  %22 = sext i32 %21 to i64
  %23 = getelementptr inbounds [1024 x %struct.dsa_segment_map], ptr %20, i64 0, i64 %22
  %24 = getelementptr inbounds nuw %struct.dsa_segment_map, ptr %23, i32 0, i32 0
  %25 = load ptr, ptr %24, align 8
  %26 = icmp ne ptr %25, null
  br i1 %26, label %27, label %35

27:                                               ; preds = %18
  %28 = load ptr, ptr %2, align 8
  %29 = getelementptr inbounds nuw %struct.dsa_area, ptr %28, i32 0, i32 2
  %30 = load i32, ptr %3, align 4
  %31 = sext i32 %30 to i64
  %32 = getelementptr inbounds [1024 x %struct.dsa_segment_map], ptr %29, i64 0, i64 %31
  %33 = getelementptr inbounds nuw %struct.dsa_segment_map, ptr %32, i32 0, i32 0
  %34 = load ptr, ptr %33, align 8
  call void @dsm_pin_mapping(ptr noundef %34)
  br label %35

35:                                               ; preds = %27, %18
  br label %36

36:                                               ; preds = %35
  %37 = load i32, ptr %3, align 4
  %38 = add i32 %37, 1
  store i32 %38, ptr %3, align 4
  br label %11, !llvm.loop !8

39:                                               ; preds = %11
  br label %40

40:                                               ; preds = %39, %1
  call void @llvm.lifetime.end.p0(i64 4, ptr %3) #8
  ret void
}