; Function Attrs: nounwind uwtable
define dso_local void @dsa_pin_mapping(ptr noundef captures(none) %0) local_unnamed_addr #0 {
  %2 = getelementptr inbounds nuw i8, ptr %0, i64 8
  %3 = load ptr, ptr %2, align 8
  %.not = icmp eq ptr %3, null
  br i1 %.not, label %.loopexit, label %4

4:                                                ; preds = %1
  store ptr null, ptr %2, align 8
  %5 = getelementptr inbounds nuw i8, ptr %0, i64 40976
  %6 = getelementptr inbounds nuw i8, ptr %0, i64 16
  br label %7

7:                                                ; preds = %4, %12
  %8 = phi i64 [ 0, %4 ], [ %14, %12 ]
  %.012 = phi i32 [ 0, %4 ], [ %13, %12 ]
  %9 = getelementptr inbounds [1024 x %struct.dsa_segment_map], ptr %6, i64 0, i64 %8
  %10 = load ptr, ptr %9, align 8
  %.not11 = icmp eq ptr %10, null
  br i1 %.not11, label %12, label %11

11:                                               ; preds = %7
  tail call void @dsm_pin_mapping(ptr noundef nonnull %10) #11
  br label %12

12:                                               ; preds = %7, %11
  %13 = add i32 %.012, 1
  %14 = sext i32 %13 to i64
  %15 = load i64, ptr %5, align 8
  %.not10 = icmp ult i64 %15, %14
  br i1 %.not10, label %.loopexit, label %7, !llvm.loop !8

.loopexit:                                        ; preds = %12, %1
  ret void
}